; Function Attrs: nofree norecurse nosync nounwind memory(readwrite, inaccessiblemem: none) uwtable
define hidden void @lj_trace_flush(ptr noundef readonly captures(none) %0, i32 noundef %1) local_unnamed_addr #7 {
  %.not = icmp eq i32 %1, 0
  br i1 %.not, label %19, label %3

3:                                                ; preds = %2
  %4 = getelementptr inbounds nuw i8, ptr %0, i64 396
  %5 = load i32, ptr %4, align 4, !tbaa !59
  %6 = icmp ult i32 %1, %5
  br i1 %6, label %7, label %19

7:                                                ; preds = %3
  %8 = getelementptr inbounds nuw i8, ptr %0, i64 384
  %9 = load ptr, ptr %8, align 8, !tbaa !40
  %10 = zext i32 %1 to i64
  %11 = getelementptr inbounds nuw %struct.GCRef, ptr %9, i64 %10
  %12 = load i64, ptr %11, align 8, !tbaa !41
  %13 = inttoptr i64 %12 to ptr
  %.not9 = icmp eq i64 %12, 0
  br i1 %.not9, label %19, label %14

14:                                               ; preds = %7
  %15 = getelementptr inbounds nuw i8, ptr %13, i64 108
  %16 = load i16, ptr %15, align 4, !tbaa !60
  %17 = icmp eq i16 %16, 0
  br i1 %17, label %18, label %19

18:                                               ; preds = %14
  tail call fastcc void @trace_flushroot(ptr noundef nonnull %0, ptr noundef nonnull %13)
  br label %19

19:                                               ; preds = %7, %14, %18, %3, %2
  ret void
}